target datalayout = "e-m:e-p270:32:32-p271:32:32-p272:64:64-i64:64-i128:128-f80:128-n8:16:32:64-S128"
target triple = "x86_64-pc-linux-gnu"

%struct.uv_tcp_s = type { ptr, ptr, i32, ptr, %struct.uv__queue, %union.anon, ptr, i32, i64, ptr, ptr, ptr, ptr, %struct.uv__io_s, %struct.uv__queue, %struct.uv__queue, ptr, i32, i32, ptr }
%union.anon = type { [4 x ptr] }
%struct.uv__io_s = type { ptr, %struct.uv__queue, %struct.uv__queue, i32, i32, i32 }
%struct.uv__queue = type { ptr, ptr }
%union.__CONST_SOCKADDR_ARG = type { ptr }
%struct.sockaddr = type { i16, [14 x i8] }
%struct.sockaddr_in6 = type { i16, i16, i32, %struct.in6_addr, i32 }
%struct.in6_addr = type { %union.anon.0 }
%union.anon.0 = type { [4 x i32] }
%union.uv__sockaddr = type { %struct.sockaddr_in6 }
%union.__SOCKADDR_ARG = type { ptr }
%struct.sockaddr_in = type { i16, i16, %struct.in_addr, [8 x i8] }
%struct.in_addr = type { i32 }

; Function Attrs: nounwind uwtable
define internal i32 @maybe_bind_socket(i32 noundef %0) #0 {
  %2 = alloca i32, align 4
  %3 = alloca i32, align 4
  %4 = alloca %union.uv__sockaddr, align 4
  %5 = alloca i32, align 4
  %6 = alloca %union.__SOCKADDR_ARG, align 8
  %7 = alloca i32, align 4
  %8 = alloca %union.__CONST_SOCKADDR_ARG, align 8
  store i32 %0, ptr %3, align 4
  call void @llvm.lifetime.start.p0(i64 28, ptr %4) #8
  call void @llvm.lifetime.start.p0(i64 4, ptr %5) #8
  store i32 28, ptr %5, align 4
  call void @llvm.memset.p0.i64(ptr align 4 %4, i8 0, i64 28, i1 false)
  %9 = load i32, ptr %3, align 4
  store ptr %4, ptr %6, align 8
  %10 = getelementptr inbounds nuw %union.__SOCKADDR_ARG, ptr %6, i32 0, i32 0
  %11 = load ptr, ptr %10, align 8
  %12 = call i32 @getsockname(i32 noundef %9, ptr %11, ptr noundef %5) #8
  %13 = icmp ne i32 %12, 0
  br i1 %13, label %14, label %18

14:                                               ; preds = %1
  %15 = call ptr @__errno_location() #9
  %16 = load i32, ptr %15, align 4
  %17 = sub nsw i32 0, %16
  store i32 %17, ptr %2, align 4
  store i32 1, ptr %7, align 4
  br label %54

18:                                               ; preds = %1
  %19 = getelementptr inbounds nuw %struct.sockaddr, ptr %4, i32 0, i32 0
  %20 = load i16, ptr %19, align 4
  %21 = zext i16 %20 to i32
  %22 = icmp eq i32 %21, 2
  br i1 %22, label %23, label %30

23:                                               ; preds = %18
  %24 = getelementptr inbounds nuw %struct.sockaddr_in, ptr %4, i32 0, i32 1
  %25 = load i16, ptr %24, align 2
  %26 = zext i16 %25 to i32
  %27 = icmp ne i32 %26, 0
  br i1 %27, label %28, label %29

28:                                               ; preds = %23
  store i32 0, ptr %2, align 4
  store i32 1, ptr %7, align 4
  br label %54

29:                                               ; preds = %23
  br label %30

30:                                               ; preds = %29, %18
  %31 = getelementptr inbounds nuw %struct.sockaddr, ptr %4, i32 0, i32 0
  %32 = load i16, ptr %31, align 4
  %33 = zext i16 %32 to i32
  %34 = icmp eq i32 %33, 10
  br i1 %34, label %35, label %42

35:                                               ; preds = %30
  %36 = getelementptr inbounds nuw %struct.sockaddr_in6, ptr %4, i32 0, i32 1
  %37 = load i16, ptr %36, align 2
  %38 = zext i16 %37 to i32
  %39 = icmp ne i32 %38, 0
  br i1 %39, label %40, label %41

40:                                               ; preds = %35
  store i32 0, ptr %2, align 4
  store i32 1, ptr %7, align 4
  br label %54

41:                                               ; preds = %35
  br label %42

42:                                               ; preds = %41, %30
  %43 = load i32, ptr %3, align 4
  store ptr %4, ptr %8, align 8
  %44 = load i32, ptr %5, align 4
  %45 = getelementptr inbounds nuw %union.__CONST_SOCKADDR_ARG, ptr %8, i32 0, i32 0
  %46 = load ptr, ptr %45, align 8
  %47 = call i32 @bind(i32 noundef %43, ptr %46, i32 noundef %44) #8
  %48 = icmp ne i32 %47, 0
  br i1 %48, label %49, label %53

49:                                               ; preds = %42
  %50 = call ptr @__errno_location() #9
  %51 = load i32, ptr %50, align 4
  %52 = sub nsw i32 0, %51
  store i32 %52, ptr %2, align 4
  store i32 1, ptr %7, align 4
  br label %54

53:                                               ; preds = %42
  store i32 0, ptr %2, align 4
  store i32 1, ptr %7, align 4
  br label %54

54:                                               ; preds = %53, %49, %40, %28, %14
  call void @llvm.lifetime.end.p0(i64 4, ptr %5) #8
  call void @llvm.lifetime.end.p0(i64 28, ptr %4) #8
  %55 = load i32, ptr %2, align 4
  ret i32 %55
}

; Function Attrs: nounwind uwtable
define internal i32 @new_socket(ptr noundef %0, i32 noundef %1, i32 noundef %2) #0 {
  %4 = alloca i32, align 4
  %5 = alloca ptr, align 8
  %6 = alloca i32, align 4
  %7 = alloca i32, align 4
  %8 = alloca i32, align 4
  %9 = alloca i32, align 4
  %10 = alloca i32, align 4
  store ptr %0, ptr %5, align 8
  store i32 %1, ptr %6, align 4
  store i32 %2, ptr %7, align 4
  call void @llvm.lifetime.start.p0(i64 4, ptr %8) #8
  call void @llvm.lifetime.start.p0(i64 4, ptr %9) #8
  %11 = load i32, ptr %6, align 4
  %12 = call i32 @uv__socket(i32 noundef %11, i32 noundef 1, i32 noundef 0)
  store i32 %12, ptr %8, align 4
  %13 = load i32, ptr %8, align 4
  %14 = icmp slt i32 %13, 0
  br i1 %14, label %15, label %17

15:                                               ; preds = %3
  %16 = load i32, ptr %8, align 4
  store i32 %16, ptr %4, align 4
  store i32 1, ptr %10, align 4
  br label %36

17:                                               ; preds = %3
  %18 = load ptr, ptr %5, align 8
  %19 = load i32, ptr %8, align 4
  %20 = load i32, ptr %7, align 4
  %21 = call i32 @uv__stream_open(ptr noundef %18, i32 noundef %19, i32 noundef %20)
  store i32 %21, ptr %9, align 4
  %22 = load i32, ptr %9, align 4
  %23 = icmp ne i32 %22, 0
  br i1 %23, label %24, label %28

24:                                               ; preds = %17
  %25 = load i32, ptr %8, align 4
  %26 = call i32 @uv__close(i32 noundef %25)
  %27 = load i32, ptr %9, align 4
  store i32 %27, ptr %4, align 4
  store i32 1, ptr %10, align 4
  br label %36

28:                                               ; preds = %17
  %29 = load i32, ptr %7, align 4
  %30 = and i32 %29, 8192
  %31 = icmp ne i32 %30, 0
  br i1 %31, label %32, label %35

32:                                               ; preds = %28
  %33 = load i32, ptr %8, align 4
  %34 = call i32 @maybe_bind_socket(i32 noundef %33)
  store i32 %34, ptr %4, align 4
  store i32 1, ptr %10, align 4
  br label %36

35:                                               ; preds = %28
  store i32 0, ptr %4, align 4
  store i32 1, ptr %10, align 4
  br label %36

36:                                               ; preds = %35, %32, %24, %15
  call void @llvm.lifetime.end.p0(i64 4, ptr %9) #8
  call void @llvm.lifetime.end.p0(i64 4, ptr %8) #8
  %37 = load i32, ptr %4, align 4
  ret i32 %37
}

; Function Attrs: nounwind uwtable
define internal i32 @maybe_new_socket(ptr noundef %0, i32 noundef %1, i32 noundef %2) #0 {
  %4 = alloca i32, align 4
  %5 = alloca ptr, align 8
  %6 = alloca i32, align 4
  %7 = alloca i32, align 4
  %8 = alloca i32, align 4
  %9 = alloca i32, align 4
  %10 = alloca i32, align 4
  store ptr %0, ptr %5, align 8
  store i32 %1, ptr %6, align 4
  store i32 %2, ptr %7, align 4
  call void @llvm.lifetime.start.p0(i64 4, ptr %8) #8
  call void @llvm.lifetime.start.p0(i64 4, ptr %9) #8
  %11 = load i32, ptr %6, align 4
  %12 = icmp eq i32 %11, 0
  br i1 %12, label %13, label %14

13:                                               ; preds = %3
  br label %46

14:                                               ; preds = %3
  %15 = load ptr, ptr %5, align 8
  %16 = getelementptr inbounds nuw %struct.uv_tcp_s, ptr %15, i32 0, i32 13
  %17 = getelementptr inbounds nuw %struct.uv__io_s, ptr %16, i32 0, i32 5
  %18 = load i32, ptr %17, align 8
  store i32 %18, ptr %8, align 4
  %19 = load i32, ptr %8, align 4
  %20 = icmp eq i32 %19, -1
  br i1 %20, label %21, label %26

21:                                               ; preds = %14
  %22 = load ptr, ptr %5, align 8
  %23 = load i32, ptr %6, align 4
  %24 = load i32, ptr %7, align 4
  %25 = call i32 @new_socket(ptr noundef %22, i32 noundef %23, i32 noundef %24)
  store i32 %25, ptr %4, align 4
  store i32 1, ptr %10, align 4
  br label %52

26:                                               ; preds = %14
  %27 = load i32, ptr %7, align 4
  %28 = and i32 %27, 8192
  %29 = icmp ne i32 %28, 0
  br i1 %29, label %31, label %30

30:                                               ; preds = %26
  br label %46

31:                                               ; preds = %26
  %32 = load ptr, ptr %5, align 8
  %33 = getelementptr inbounds nuw %struct.uv_tcp_s, ptr %32, i32 0, i32 7
  %34 = load i32, ptr %33, align 8
  %35 = and i32 %34, 8192
  %36 = icmp ne i32 %35, 0
  br i1 %36, label %37, label %38

37:                                               ; preds = %31
  br label %46

38:                                               ; preds = %31
  %39 = load i32, ptr %8, align 4
  %40 = call i32 @maybe_bind_socket(i32 noundef %39)
  store i32 %40, ptr %9, align 4
  %41 = load i32, ptr %9, align 4
  %42 = icmp ne i32 %41, 0
  br i1 %42, label %43, label %45

43:                                               ; preds = %38
  %44 = load i32, ptr %9, align 4
  store i32 %44, ptr %4, align 4
  store i32 1, ptr %10, align 4
  br label %52

45:                                               ; preds = %38
  br label %46

46:                                               ; preds = %45, %37, %30, %13
  %47 = load i32, ptr %7, align 4
  %48 = load ptr, ptr %5, align 8
  %49 = getelementptr inbounds nuw %struct.uv_tcp_s, ptr %48, i32 0, i32 7
  %50 = load i32, ptr %49, align 8
  %51 = or i32 %50, %47
  store i32 %51, ptr %49, align 8
  store i32 0, ptr %4, align 4
  store i32 1, ptr %10, align 4
  br label %52

52:                                               ; preds = %46, %43, %21
  call void @llvm.lifetime.end.p0(i64 4, ptr %9) #8
  call void @llvm.lifetime.end.p0(i64 4, ptr %8) #8
  %53 = load i32, ptr %4, align 4
  ret i32 %53
}

; Function Attrs: nounwind uwtable
define hidden i32 @uv__tcp_listen(ptr noundef %0, i32 noundef %1, ptr noundef %2) #0 {
  %4 = alloca i32, align 4
  %5 = alloca ptr, align 8
  %6 = alloca i32, align 4
  %7 = alloca ptr, align 8
  %8 = alloca i32, align 4
  %9 = alloca i32, align 4
  %10 = alloca i32, align 4
  store ptr %0, ptr %5, align 8
  store i32 %1, ptr %6, align 4
  store ptr %2, ptr %7, align 8
  call void @llvm.lifetime.start.p0(i64 4, ptr %8) #8
  call void @llvm.lifetime.start.p0(i64 4, ptr %9) #8
  %11 = load ptr, ptr %5, align 8
  %12 = getelementptr inbounds nuw %struct.uv_tcp_s, ptr %11, i32 0, i32 17
  %13 = load i32, ptr %12, align 8
  %14 = icmp ne i32 %13, 0
  br i1 %14, label %15, label %19

15:                                               ; preds = %3
  %16 = load ptr, ptr %5, align 8
  %17 = getelementptr inbounds nuw %struct.uv_tcp_s, ptr %16, i32 0, i32 17
  %18 = load i32, ptr %17, align 8
  store i32 %18, ptr %4, align 4
  store i32 1, ptr %10, align 4
  br label %55

19:                                               ; preds = %3
  store i32 0, ptr %8, align 4
  %20 = load ptr, ptr %5, align 8
  %21 = load i32, ptr %8, align 4
  %22 = call i32 @maybe_new_socket(ptr noundef %20, i32 noundef 2, i32 noundef %21)
  store i32 %22, ptr %9, align 4
  %23 = load i32, ptr %9, align 4
  %24 = icmp ne i32 %23, 0
  br i1 %24, label %25, label %27

25:                                               ; preds = %19
  %26 = load i32, ptr %9, align 4
  store i32 %26, ptr %4, align 4
  store i32 1, ptr %10, align 4
  br label %55

27:                                               ; preds = %19
  %28 = load ptr, ptr %5, align 8
  %29 = getelementptr inbounds nuw %struct.uv_tcp_s, ptr %28, i32 0, i32 13
  %30 = getelementptr inbounds nuw %struct.uv__io_s, ptr %29, i32 0, i32 5
  %31 = load i32, ptr %30, align 8
  %32 = load i32, ptr %6, align 4
  %33 = call i32 @listen(i32 noundef %31, i32 noundef %32) #8
  %34 = icmp ne i32 %33, 0
  br i1 %34, label %35, label %39

35:                                               ; preds = %27
  %36 = call ptr @__errno_location() #9
  %37 = load i32, ptr %36, align 4
  %38 = sub nsw i32 0, %37
  store i32 %38, ptr %4, align 4
  store i32 1, ptr %10, align 4
  br label %55

39:                                               ; preds = %27
  %40 = load ptr, ptr %7, align 8
  %41 = load ptr, ptr %5, align 8
  %42 = getelementptr inbounds nuw %struct.uv_tcp_s, ptr %41, i32 0, i32 16
  store ptr %40, ptr %42, align 8
  %43 = load ptr, ptr %5, align 8
  %44 = getelementptr inbounds nuw %struct.uv_tcp_s, ptr %43, i32 0, i32 7
  %45 = load i32, ptr %44, align 8
  %46 = or i32 %45, 8192
  store i32 %46, ptr %44, align 8
  %47 = load ptr, ptr %5, align 8
  %48 = getelementptr inbounds nuw %struct.uv_tcp_s, ptr %47, i32 0, i32 13
  %49 = getelementptr inbounds nuw %struct.uv__io_s, ptr %48, i32 0, i32 0
  store ptr @uv__server_io, ptr %49, align 8
  %50 = load ptr, ptr %5, align 8
  %51 = getelementptr inbounds nuw %struct.uv_tcp_s, ptr %50, i32 0, i32 1
  %52 = load ptr, ptr %51, align 8
  %53 = load ptr, ptr %5, align 8
  %54 = getelementptr inbounds nuw %struct.uv_tcp_s, ptr %53, i32 0, i32 13
  call void @uv__io_start(ptr noundef %52, ptr noundef %54, i32 noundef 1)
  store i32 0, ptr %4, align 4
  store i32 1, ptr %10, align 4
  br label %55

55:                                               ; preds = %39, %35, %25, %15
  call void @llvm.lifetime.end.p0(i64 4, ptr %9) #8
  call void @llvm.lifetime.end.p0(i64 4, ptr %8) #8
  %56 = load i32, ptr %4, align 4
  ret i32 %56
}