; Function Attrs: nounwind uwtable
define hidden i32 @uv__tcp_listen(ptr noundef %0, i32 noundef %1, ptr noundef %2) local_unnamed_addr #0 {
  %4 = getelementptr inbounds nuw i8, ptr %0, i64 232
  %5 = load i32, ptr %4, align 8
  %.not = icmp eq i32 %5, 0
  br i1 %.not, label %6, label %maybe_new_socket.exit

6:                                                ; preds = %3
  %7 = getelementptr inbounds nuw i8, ptr %0, i64 184
  %8 = load i32, ptr %7, align 8
  %9 = icmp eq i32 %8, -1
  br i1 %9, label %10, label %17

10:                                               ; preds = %6
  %11 = tail call i32 @uv__socket(i32 noundef range(i32 1, 65536) 2, i32 noundef 1, i32 noundef 0) #7
  %12 = icmp slt i32 %11, 0
  br i1 %12, label %maybe_new_socket.exit, label %13

13:                                               ; preds = %10
  %14 = tail call i32 @uv__stream_open(ptr noundef nonnull %0, i32 noundef %11, i32 noundef range(i32 0, 49153) 0) #7
  %.not.i.i = icmp eq i32 %14, 0
  br i1 %.not.i.i, label %._crit_edge, label %15

._crit_edge:                                      ; preds = %13
  %.pre = load i32, ptr %7, align 8
  br label %17

15:                                               ; preds = %13
  %16 = tail call i32 @uv__close(i32 noundef %11) #7
  br label %maybe_new_socket.exit

17:                                               ; preds = %._crit_edge, %6
  %18 = phi i32 [ %.pre, %._crit_edge ], [ %8, %6 ]
  %19 = tail call i32 @listen(i32 noundef %18, i32 noundef %1) #7
  %.not17 = icmp eq i32 %19, 0
  br i1 %.not17, label %24, label %20

20:                                               ; preds = %17
  %21 = tail call ptr @__errno_location() #8
  %22 = load i32, ptr %21, align 4
  %23 = sub nsw i32 0, %22
  br label %maybe_new_socket.exit

24:                                               ; preds = %17
  %25 = getelementptr inbounds nuw i8, ptr %0, i64 136
  %26 = getelementptr inbounds nuw i8, ptr %0, i64 224
  store ptr %2, ptr %26, align 8
  %27 = getelementptr inbounds nuw i8, ptr %0, i64 88
  %28 = load i32, ptr %27, align 8
  %29 = or i32 %28, 8192
  store i32 %29, ptr %27, align 8
  store ptr @uv__server_io, ptr %25, align 8
  %30 = getelementptr inbounds nuw i8, ptr %0, i64 8
  %31 = load ptr, ptr %30, align 8
  tail call void @uv__io_start(ptr noundef %31, ptr noundef nonnull %25, i32 noundef 1) #7
  br label %maybe_new_socket.exit

maybe_new_socket.exit:                            ; preds = %15, %10, %3, %24, %20
  %.0 = phi i32 [ %23, %20 ], [ 0, %24 ], [ %5, %3 ], [ %14, %15 ], [ %11, %10 ]
  ret i32 %.0
}